target datalayout = "e-m:e-p270:32:32-p271:32:32-p272:64:64-i64:64-i128:128-f80:128-n8:16:32:64-S128"
target triple = "x86_64-pc-linux-gnu"

%struct.SDL_HIDAPI_Device = type { ptr, ptr, ptr, ptr, i16, i16, i16, ptr, %struct.SDL_GUID, i32, i32, i32, i32, i16, i16, i8, i32, i32, i32, ptr, ptr, ptr, ptr, %struct.SDL_AtomicInt, i32, ptr, i8, i8, i8, ptr, i32, ptr, ptr }
%struct.SDL_GUID = type { [16 x i8] }
%struct.SDL_AtomicInt = type { i32 }
%struct.SDL_DriverPS3_Context = type { ptr, ptr, i8, i8, i8, i8, i32, i8, i8, [64 x i8] }

@.str.9 = private unnamed_addr constant [21 x i8] c"Logitech ChillStream\00", align 1

; Function Attrs: nounwind uwtable
define internal zeroext i1 @HIDAPI_DriverPS3ThirdParty_InitDevice(ptr noundef %0) #0 {
  %2 = alloca i1, align 1
  %3 = alloca ptr, align 8
  %4 = alloca ptr, align 8
  %5 = alloca i32, align 4
  store ptr %0, ptr %3, align 8
  call void @llvm.lifetime.start.p0(i64 8, ptr %4) #7
  %6 = call noalias ptr @SDL_calloc_REAL(i64 noundef 1, i64 noundef 96) #8
  store ptr %6, ptr %4, align 8
  %7 = load ptr, ptr %4, align 8
  %8 = icmp ne ptr %7, null
  br i1 %8, label %10, label %9

9:                                                ; preds = %1
  store i1 false, ptr %2, align 1
  store i32 1, ptr %5, align 4
  br label %53

10:                                               ; preds = %1
  %11 = load ptr, ptr %3, align 8
  %12 = load ptr, ptr %4, align 8
  %13 = getelementptr inbounds nuw %struct.SDL_DriverPS3_Context, ptr %12, i32 0, i32 0
  store ptr %11, ptr %13, align 8
  %14 = load ptr, ptr %3, align 8
  %15 = getelementptr inbounds nuw %struct.SDL_HIDAPI_Device, ptr %14, i32 0, i32 4
  %16 = load i16, ptr %15, align 8
  %17 = zext i16 %16 to i32
  %18 = icmp eq i32 %17, 9571
  br i1 %18, label %19, label %28

19:                                               ; preds = %10
  %20 = load ptr, ptr %3, align 8
  %21 = getelementptr inbounds nuw %struct.SDL_HIDAPI_Device, ptr %20, i32 0, i32 5
  %22 = load i16, ptr %21, align 2
  %23 = zext i16 %22 to i32
  %24 = icmp eq i32 %23, 1397
  br i1 %24, label %25, label %28

25:                                               ; preds = %19
  %26 = load ptr, ptr %4, align 8
  %27 = getelementptr inbounds nuw %struct.SDL_DriverPS3_Context, ptr %26, i32 0, i32 3
  store i8 0, ptr %27, align 1
  br label %31

28:                                               ; preds = %19, %10
  %29 = load ptr, ptr %4, align 8
  %30 = getelementptr inbounds nuw %struct.SDL_DriverPS3_Context, ptr %29, i32 0, i32 3
  store i8 1, ptr %30, align 1
  br label %31

31:                                               ; preds = %28, %25
  %32 = load ptr, ptr %4, align 8
  %33 = load ptr, ptr %3, align 8
  %34 = getelementptr inbounds nuw %struct.SDL_HIDAPI_Device, ptr %33, i32 0, i32 20
  store ptr %32, ptr %34, align 8
  %35 = load ptr, ptr %3, align 8
  %36 = getelementptr inbounds nuw %struct.SDL_HIDAPI_Device, ptr %35, i32 0, i32 17
  store i32 4, ptr %36, align 4
  %37 = load ptr, ptr %3, align 8
  %38 = getelementptr inbounds nuw %struct.SDL_HIDAPI_Device, ptr %37, i32 0, i32 4
  %39 = load i16, ptr %38, align 8
  %40 = zext i16 %39 to i32
  %41 = icmp eq i32 %40, 1133
  br i1 %41, label %42, label %50

42:                                               ; preds = %31
  %43 = load ptr, ptr %3, align 8
  %44 = getelementptr inbounds nuw %struct.SDL_HIDAPI_Device, ptr %43, i32 0, i32 5
  %45 = load i16, ptr %44, align 2
  %46 = zext i16 %45 to i32
  %47 = icmp eq i32 %46, 51921
  br i1 %47, label %48, label %50

48:                                               ; preds = %42
  %49 = load ptr, ptr %3, align 8
  call void @HIDAPI_SetDeviceName(ptr noundef %49, ptr noundef @.str.9)
  br label %50

50:                                               ; preds = %48, %42, %31
  %51 = load ptr, ptr %3, align 8
  %52 = call zeroext i1 @HIDAPI_JoystickConnected(ptr noundef %51, ptr noundef null)
  store i1 %52, ptr %2, align 1
  store i32 1, ptr %5, align 4
  br label %53

53:                                               ; preds = %50, %9
  call void @llvm.lifetime.end.p0(i64 8, ptr %4) #7
  %54 = load i1, ptr %2, align 1
  ret i1 %54
}