; Function Attrs: nounwind uwtable
define internal zeroext i1 @HIDAPI_DriverPS3ThirdParty_InitDevice(ptr noundef %0) #0 {
  %2 = tail call noalias dereferenceable_or_null(96) ptr @SDL_calloc_REAL(i64 noundef 1, i64 noundef 96) #11
  %.not = icmp eq ptr %2, null
  br i1 %.not, label %26, label %3

3:                                                ; preds = %1
  store ptr %0, ptr %2, align 8
  %4 = getelementptr inbounds nuw i8, ptr %0, i64 32
  %5 = load i16, ptr %4, align 8
  %6 = icmp eq i16 %5, 9571
  br i1 %6, label %7, label %14

7:                                                ; preds = %3
  %8 = getelementptr inbounds nuw i8, ptr %0, i64 34
  %9 = load i16, ptr %8, align 2
  %10 = icmp eq i16 %9, 1397
  %11 = getelementptr inbounds nuw i8, ptr %2, i64 17
  %12 = getelementptr inbounds nuw i8, ptr %0, i64 112
  %13 = getelementptr inbounds nuw i8, ptr %0, i64 92
  br i1 %10, label %.thread, label %.thread16

.thread16:                                        ; preds = %7
  store i8 1, ptr %11, align 1
  store ptr %2, ptr %12, align 8
  store i32 4, ptr %13, align 4
  br label %24

.thread:                                          ; preds = %7
  store i8 0, ptr %11, align 1
  store ptr %2, ptr %12, align 8
  store i32 4, ptr %13, align 4
  br label %24

14:                                               ; preds = %3
  %15 = getelementptr inbounds nuw i8, ptr %2, i64 17
  store i8 1, ptr %15, align 1
  %16 = getelementptr inbounds nuw i8, ptr %0, i64 112
  store ptr %2, ptr %16, align 8
  %17 = getelementptr inbounds nuw i8, ptr %0, i64 92
  store i32 4, ptr %17, align 4
  %18 = icmp eq i16 %5, 1133
  br i1 %18, label %19, label %24

19:                                               ; preds = %14
  %20 = getelementptr inbounds nuw i8, ptr %0, i64 34
  %21 = load i16, ptr %20, align 2
  %22 = icmp eq i16 %21, -13615
  br i1 %22, label %23, label %24

23:                                               ; preds = %19
  tail call void @HIDAPI_SetDeviceName(ptr noundef nonnull %0, ptr noundef nonnull @.str.9) #10
  br label %24

24:                                               ; preds = %.thread16, %.thread, %23, %19, %14
  %25 = tail call zeroext i1 @HIDAPI_JoystickConnected(ptr noundef nonnull %0, ptr noundef null) #10
  br label %26

26:                                               ; preds = %1, %24
  %.0 = phi i1 [ %25, %24 ], [ false, %1 ]
  ret i1 %.0
}